; Function Attrs: mustprogress uwtable
define internal noundef ptr @"_ZZN4pkpy15__init_builtinsEPNS_2VMEEN5$_1998__invokeES1_NS_8ArgsViewE"(ptr noundef %0, ptr nocapture readonly %1, ptr nocapture readnone %2) #4 align 2 {
  %4 = alloca %"struct.pkpy::StrName", align 2
  call void @llvm.lifetime.start.p0(i64 2, ptr nonnull %4)
  %5 = load ptr, ptr %1, align 8
  %6 = getelementptr inbounds i8, ptr %5, i64 24
  %.sroa.05.0.copyload.i = load i16, ptr %6, align 8
  %7 = tail call i16 @_ZN4pkpy10_type_nameEPNS_2VMENS_4TypeE(ptr noundef %0, i16 %.sroa.05.0.copyload.i)
  store i16 %7, ptr %4, align 2
  %8 = getelementptr inbounds i8, ptr %0, i64 16
  %9 = call noundef ptr @_ZN4pkpy11ManagedHeap5gcnewINS_9ExceptionEJRNS_7StrNameEEEEPNS_8PyObjectENS_4TypeEDpOT0_(ptr noundef nonnull align 8 dereferenceable(84) %8, i16 %.sroa.05.0.copyload.i, ptr noundef nonnull align 2 dereferenceable(2) %4)
  %10 = call noundef ptr @_ZN4pkpy13pool128_allocEm(i64 noundef 88) #35
  store i8 1, ptr %10, align 8
  %11 = getelementptr inbounds i8, ptr %10, i64 2
  call void @llvm.memset.p0.i64(ptr noundef nonnull align 2 dereferenceable(18) %11, i8 0, i64 18, i1 false)
  %12 = getelementptr inbounds i8, ptr %9, i64 16
  store ptr %10, ptr %12, align 8
  %13 = getelementptr inbounds i8, ptr %9, i64 80
  store ptr %9, ptr %13, align 8
  call void @llvm.lifetime.end.p0(i64 2, ptr nonnull %4)
  ret ptr %9
}